target datalayout = "e-m:e-p270:32:32-p271:32:32-p272:64:64-i64:64-i128:128-f80:128-n8:16:32:64-S128"
target triple = "x86_64-pc-linux-gnu"

%"class.tinyxml2::StrPair" = type { i32, ptr, ptr }
%"class.tinyxml2::XMLNode" = type { ptr, ptr, ptr, %"class.tinyxml2::StrPair", i32, ptr, ptr, ptr, ptr, ptr, ptr }
%"class.tinyxml2::XMLElement" = type { %"class.tinyxml2::XMLNode", i32, ptr }
%"class.tinyxml2::XMLAttribute" = type { ptr, %"class.tinyxml2::StrPair", %"class.tinyxml2::StrPair", i32, ptr, ptr }

; Function Attrs: mustprogress uwtable
define noundef ptr @_ZNK8tinyxml27XMLNode5ValueEv(ptr noundef nonnull align 8 dereferenceable(104) %0) #2 align 2 {
  %2 = alloca ptr, align 8
  %3 = alloca ptr, align 8
  store ptr %0, ptr %3, align 8, !tbaa !85
  %4 = load ptr, ptr %3, align 8
  %5 = load ptr, ptr %4, align 8, !tbaa !91
  %6 = getelementptr inbounds ptr, ptr %5, i64 9
  %7 = load ptr, ptr %6, align 8
  %8 = call noundef ptr %7(ptr noundef nonnull align 8 dereferenceable(104) %4)
  %9 = icmp ne ptr %8, null
  br i1 %9, label %10, label %11

10:                                               ; preds = %1
  store ptr null, ptr %2, align 8
  br label %14

11:                                               ; preds = %1
  %12 = getelementptr inbounds nuw %"class.tinyxml2::XMLNode", ptr %4, i32 0, i32 3
  %13 = call noundef ptr @_ZN8tinyxml27StrPair6GetStrEv(ptr noundef nonnull align 8 dereferenceable(24) %12)
  store ptr %13, ptr %2, align 8
  br label %14

14:                                               ; preds = %11, %10
  %15 = load ptr, ptr %2, align 8
  ret ptr %15
}

; Function Attrs: mustprogress nounwind uwtable
define linkonce_odr hidden noundef ptr @_ZNK8tinyxml212XMLAttribute4NextEv(ptr noundef nonnull align 8 dereferenceable(80) %0) #0 comdat align 2 {
  %2 = alloca ptr, align 8
  store ptr %0, ptr %2, align 8, !tbaa !140
  %3 = load ptr, ptr %2, align 8
  %4 = getelementptr inbounds nuw %"class.tinyxml2::XMLAttribute", ptr %3, i32 0, i32 4
  %5 = load ptr, ptr %4, align 8, !tbaa !142
  ret ptr %5
}

; Function Attrs: mustprogress uwtable
define noundef ptr @_ZNK8tinyxml212XMLAttribute5ValueEv(ptr noundef nonnull align 8 dereferenceable(80) %0) #2 align 2 {
  %2 = alloca ptr, align 8
  store ptr %0, ptr %2, align 8, !tbaa !140
  %3 = load ptr, ptr %2, align 8
  %4 = getelementptr inbounds nuw %"class.tinyxml2::XMLAttribute", ptr %3, i32 0, i32 2
  %5 = call noundef ptr @_ZN8tinyxml27StrPair6GetStrEv(ptr noundef nonnull align 8 dereferenceable(24) %4)
  ret ptr %5
}

; Function Attrs: mustprogress nounwind uwtable
define linkonce_odr hidden noundef ptr @_ZNK8tinyxml210XMLElement14FirstAttributeEv(ptr noundef nonnull align 8 dereferenceable(120) %0) #0 comdat align 2 {
  %2 = alloca ptr, align 8
  store ptr %0, ptr %2, align 8, !tbaa !106
  %3 = load ptr, ptr %2, align 8
  %4 = getelementptr inbounds nuw %"class.tinyxml2::XMLElement", ptr %3, i32 0, i32 2
  %5 = load ptr, ptr %4, align 8, !tbaa !141
  ret ptr %5
}

; Function Attrs: inlinehint mustprogress nounwind uwtable
define linkonce_odr hidden noundef zeroext i1 @_ZN8tinyxml27XMLUtil11StringEqualEPKcS2_i(ptr noundef %0, ptr noundef %1, i32 noundef %2) #8 comdat align 2 {
  %4 = alloca i1, align 1
  %5 = alloca ptr, align 8
  %6 = alloca ptr, align 8
  %7 = alloca i32, align 4
  store ptr %0, ptr %5, align 8, !tbaa !14
  store ptr %1, ptr %6, align 8, !tbaa !14
  store i32 %2, ptr %7, align 4, !tbaa !15
  %8 = load ptr, ptr %5, align 8, !tbaa !14
  %9 = load ptr, ptr %6, align 8, !tbaa !14
  %10 = icmp eq ptr %8, %9
  br i1 %10, label %11, label %12

11:                                               ; preds = %3
  store i1 true, ptr %4, align 1
  br label %19

12:                                               ; preds = %3
  %13 = load ptr, ptr %5, align 8, !tbaa !14
  %14 = load ptr, ptr %6, align 8, !tbaa !14
  %15 = load i32, ptr %7, align 4, !tbaa !15
  %16 = sext i32 %15 to i64
  %17 = call i32 @strncmp(ptr noundef %13, ptr noundef %14, i64 noundef %16) #19
  %18 = icmp eq i32 %17, 0
  store i1 %18, ptr %4, align 1
  br label %19

19:                                               ; preds = %12, %11
  %20 = load i1, ptr %4, align 1
  ret i1 %20
}

; Function Attrs: mustprogress uwtable
define linkonce_odr hidden noundef ptr @_ZNK8tinyxml210XMLElement4NameEv(ptr noundef nonnull align 8 dereferenceable(120) %0) #2 comdat align 2 {
  %2 = alloca ptr, align 8
  store ptr %0, ptr %2, align 8, !tbaa !106
  %3 = load ptr, ptr %2, align 8
  %4 = call noundef ptr @_ZNK8tinyxml27XMLNode5ValueEv(ptr noundef nonnull align 8 dereferenceable(104) %3)
  ret ptr %4
}

; Function Attrs: mustprogress uwtable
define noundef zeroext i1 @_ZNK8tinyxml210XMLElement12ShallowEqualEPKNS_7XMLNodeE(ptr noundef nonnull align 8 dereferenceable(120) %0, ptr noundef %1) unnamed_addr #2 align 2 {
  %3 = alloca i1, align 1
  %4 = alloca ptr, align 8
  %5 = alloca ptr, align 8
  %6 = alloca ptr, align 8
  %7 = alloca ptr, align 8
  %8 = alloca ptr, align 8
  %9 = alloca i32, align 4
  store ptr %0, ptr %4, align 8, !tbaa !106
  store ptr %1, ptr %5, align 8, !tbaa !85
  %10 = load ptr, ptr %4, align 8
  call void @llvm.lifetime.start.p0(i64 8, ptr %6) #18
  %11 = load ptr, ptr %5, align 8, !tbaa !85
  %12 = load ptr, ptr %11, align 8, !tbaa !91
  %13 = getelementptr inbounds ptr, ptr %12, i64 6
  %14 = load ptr, ptr %13, align 8
  %15 = call noundef ptr %14(ptr noundef nonnull align 8 dereferenceable(104) %11)
  store ptr %15, ptr %6, align 8, !tbaa !106
  %16 = load ptr, ptr %6, align 8, !tbaa !106
  %17 = icmp ne ptr %16, null
  br i1 %17, label %18, label %56

18:                                               ; preds = %2
  %19 = load ptr, ptr %6, align 8, !tbaa !106
  %20 = call noundef ptr @_ZNK8tinyxml210XMLElement4NameEv(ptr noundef nonnull align 8 dereferenceable(120) %19)
  %21 = call noundef ptr @_ZNK8tinyxml210XMLElement4NameEv(ptr noundef nonnull align 8 dereferenceable(120) %10)
  %22 = call noundef zeroext i1 @_ZN8tinyxml27XMLUtil11StringEqualEPKcS2_i(ptr noundef %20, ptr noundef %21, i32 noundef 2147483647)
  br i1 %22, label %23, label %56

23:                                               ; preds = %18
  call void @llvm.lifetime.start.p0(i64 8, ptr %7) #18
  %24 = call noundef ptr @_ZNK8tinyxml210XMLElement14FirstAttributeEv(ptr noundef nonnull align 8 dereferenceable(120) %10)
  store ptr %24, ptr %7, align 8, !tbaa !140
  call void @llvm.lifetime.start.p0(i64 8, ptr %8) #18
  %25 = load ptr, ptr %6, align 8, !tbaa !106
  %26 = call noundef ptr @_ZNK8tinyxml210XMLElement14FirstAttributeEv(ptr noundef nonnull align 8 dereferenceable(120) %25)
  store ptr %26, ptr %8, align 8, !tbaa !140
  br label %27

27:                                               ; preds = %42, %23
  %28 = load ptr, ptr %7, align 8, !tbaa !140
  %29 = icmp ne ptr %28, null
  br i1 %29, label %30, label %33

30:                                               ; preds = %27
  %31 = load ptr, ptr %8, align 8, !tbaa !140
  %32 = icmp ne ptr %31, null
  br label %33

33:                                               ; preds = %30, %27
  %34 = phi i1 [ false, %27 ], [ %32, %30 ]
  br i1 %34, label %35, label %47

35:                                               ; preds = %33
  %36 = load ptr, ptr %7, align 8, !tbaa !140
  %37 = call noundef ptr @_ZNK8tinyxml212XMLAttribute5ValueEv(ptr noundef nonnull align 8 dereferenceable(80) %36)
  %38 = load ptr, ptr %8, align 8, !tbaa !140
  %39 = call noundef ptr @_ZNK8tinyxml212XMLAttribute5ValueEv(ptr noundef nonnull align 8 dereferenceable(80) %38)
  %40 = call noundef zeroext i1 @_ZN8tinyxml27XMLUtil11StringEqualEPKcS2_i(ptr noundef %37, ptr noundef %39, i32 noundef 2147483647)
  br i1 %40, label %42, label %41

41:                                               ; preds = %35
  store i1 false, ptr %3, align 1
  store i32 1, ptr %9, align 4
  br label %55

42:                                               ; preds = %35
  %43 = load ptr, ptr %7, align 8, !tbaa !140
  %44 = call noundef ptr @_ZNK8tinyxml212XMLAttribute4NextEv(ptr noundef nonnull align 8 dereferenceable(80) %43)
  store ptr %44, ptr %7, align 8, !tbaa !140
  %45 = load ptr, ptr %8, align 8, !tbaa !140
  %46 = call noundef ptr @_ZNK8tinyxml212XMLAttribute4NextEv(ptr noundef nonnull align 8 dereferenceable(80) %45)
  store ptr %46, ptr %8, align 8, !tbaa !140
  br label %27, !llvm.loop !164

47:                                               ; preds = %33
  %48 = load ptr, ptr %7, align 8, !tbaa !140
  %49 = icmp ne ptr %48, null
  br i1 %49, label %53, label %50

50:                                               ; preds = %47
  %51 = load ptr, ptr %8, align 8, !tbaa !140
  %52 = icmp ne ptr %51, null
  br i1 %52, label %53, label %54

53:                                               ; preds = %50, %47
  store i1 false, ptr %3, align 1
  store i32 1, ptr %9, align 4
  br label %55

54:                                               ; preds = %50
  store i1 true, ptr %3, align 1
  store i32 1, ptr %9, align 4
  br label %55

55:                                               ; preds = %54, %53, %41
  call void @llvm.lifetime.end.p0(i64 8, ptr %8) #18
  call void @llvm.lifetime.end.p0(i64 8, ptr %7) #18
  br label %57

56:                                               ; preds = %18, %2
  store i1 false, ptr %3, align 1
  store i32 1, ptr %9, align 4
  br label %57

57:                                               ; preds = %56, %55
  call void @llvm.lifetime.end.p0(i64 8, ptr %6) #18
  %58 = load i1, ptr %3, align 1
  ret i1 %58
}