; Function Attrs: mustprogress uwtable
define noundef zeroext i1 @_ZNK8tinyxml210XMLElement12ShallowEqualEPKNS_7XMLNodeE(ptr noundef nonnull align 8 dereferenceable(120) %0, ptr noundef %1) unnamed_addr #4 align 2 {
  %3 = load ptr, ptr %1, align 8, !tbaa !63
  %4 = getelementptr inbounds nuw i8, ptr %3, i64 48
  %5 = load ptr, ptr %4, align 8
  %6 = tail call noundef ptr %5(ptr noundef nonnull align 8 dereferenceable(104) %1)
  %.not = icmp eq ptr %6, null
  br i1 %.not, label %.loopexit, label %7

7:                                                ; preds = %2
  %8 = load ptr, ptr %6, align 8, !tbaa !63
  %9 = getelementptr inbounds nuw i8, ptr %8, i64 72
  %10 = load ptr, ptr %9, align 8
  %11 = tail call noundef ptr %10(ptr noundef nonnull align 8 dereferenceable(120) %6)
  %.not.i.i = icmp eq ptr %11, null
  br i1 %.not.i.i, label %12, label %_ZNK8tinyxml210XMLElement4NameEv.exit

12:                                               ; preds = %7
  %13 = getelementptr inbounds nuw i8, ptr %6, i64 24
  %14 = tail call noundef ptr @_ZN8tinyxml27StrPair6GetStrEv(ptr noundef nonnull align 8 dereferenceable(24) %13)
  br label %_ZNK8tinyxml210XMLElement4NameEv.exit

_ZNK8tinyxml210XMLElement4NameEv.exit:            ; preds = %7, %12
  %.0.i.i = phi ptr [ %14, %12 ], [ null, %7 ]
  %15 = load ptr, ptr %0, align 8, !tbaa !63
  %16 = getelementptr inbounds nuw i8, ptr %15, i64 72
  %17 = load ptr, ptr %16, align 8
  %18 = tail call noundef ptr %17(ptr noundef nonnull align 8 dereferenceable(120) %0)
  %.not.i.i18 = icmp eq ptr %18, null
  br i1 %.not.i.i18, label %19, label %_ZNK8tinyxml210XMLElement4NameEv.exit20

19:                                               ; preds = %_ZNK8tinyxml210XMLElement4NameEv.exit
  %20 = getelementptr inbounds nuw i8, ptr %0, i64 24
  %21 = tail call noundef ptr @_ZN8tinyxml27StrPair6GetStrEv(ptr noundef nonnull align 8 dereferenceable(24) %20)
  br label %_ZNK8tinyxml210XMLElement4NameEv.exit20

_ZNK8tinyxml210XMLElement4NameEv.exit20:          ; preds = %_ZNK8tinyxml210XMLElement4NameEv.exit, %19
  %.0.i.i19 = phi ptr [ %21, %19 ], [ null, %_ZNK8tinyxml210XMLElement4NameEv.exit ]
  %22 = icmp eq ptr %.0.i.i, %.0.i.i19
  br i1 %22, label %_ZN8tinyxml27XMLUtil11StringEqualEPKcS2_i.exit.thread, label %_ZN8tinyxml27XMLUtil11StringEqualEPKcS2_i.exit

_ZN8tinyxml27XMLUtil11StringEqualEPKcS2_i.exit:   ; preds = %_ZNK8tinyxml210XMLElement4NameEv.exit20
  %23 = tail call i32 @strncmp(ptr noundef nonnull dereferenceable(1) %.0.i.i, ptr noundef nonnull dereferenceable(1) %.0.i.i19, i64 noundef 2147483647) #33
  %24 = icmp eq i32 %23, 0
  br i1 %24, label %_ZN8tinyxml27XMLUtil11StringEqualEPKcS2_i.exit.thread, label %.loopexit

_ZN8tinyxml27XMLUtil11StringEqualEPKcS2_i.exit.thread: ; preds = %_ZNK8tinyxml210XMLElement4NameEv.exit20, %_ZN8tinyxml27XMLUtil11StringEqualEPKcS2_i.exit
  %25 = getelementptr inbounds nuw i8, ptr %0, i64 112
  %26 = getelementptr inbounds nuw i8, ptr %6, i64 112
  %.028 = load ptr, ptr %26, align 8, !tbaa !103
  %.01529 = load ptr, ptr %25, align 8, !tbaa !103
  %27 = icmp ne ptr %.01529, null
  %28 = icmp ne ptr %.028, null
  %29 = and i1 %28, %27
  br i1 %29, label %.lr.ph, label %._crit_edge

.lr.ph:                                           ; preds = %_ZN8tinyxml27XMLUtil11StringEqualEPKcS2_i.exit.thread, %_ZN8tinyxml27XMLUtil11StringEqualEPKcS2_i.exit22.thread
  %.01531 = phi ptr [ %.015, %_ZN8tinyxml27XMLUtil11StringEqualEPKcS2_i.exit22.thread ], [ %.01529, %_ZN8tinyxml27XMLUtil11StringEqualEPKcS2_i.exit.thread ]
  %.030 = phi ptr [ %.0, %_ZN8tinyxml27XMLUtil11StringEqualEPKcS2_i.exit22.thread ], [ %.028, %_ZN8tinyxml27XMLUtil11StringEqualEPKcS2_i.exit.thread ]
  %30 = getelementptr inbounds nuw i8, ptr %.01531, i64 32
  %31 = tail call noundef ptr @_ZN8tinyxml27StrPair6GetStrEv(ptr noundef nonnull align 8 dereferenceable(24) %30)
  %32 = getelementptr inbounds nuw i8, ptr %.030, i64 32
  %33 = tail call noundef ptr @_ZN8tinyxml27StrPair6GetStrEv(ptr noundef nonnull align 8 dereferenceable(24) %32)
  %34 = icmp eq ptr %31, %33
  br i1 %34, label %_ZN8tinyxml27XMLUtil11StringEqualEPKcS2_i.exit22.thread, label %_ZN8tinyxml27XMLUtil11StringEqualEPKcS2_i.exit22

_ZN8tinyxml27XMLUtil11StringEqualEPKcS2_i.exit22: ; preds = %.lr.ph
  %35 = tail call i32 @strncmp(ptr noundef nonnull dereferenceable(1) %31, ptr noundef nonnull dereferenceable(1) %33, i64 noundef 2147483647) #33
  %36 = icmp eq i32 %35, 0
  br i1 %36, label %_ZN8tinyxml27XMLUtil11StringEqualEPKcS2_i.exit22.thread, label %.loopexit

_ZN8tinyxml27XMLUtil11StringEqualEPKcS2_i.exit22.thread: ; preds = %.lr.ph, %_ZN8tinyxml27XMLUtil11StringEqualEPKcS2_i.exit22
  %37 = getelementptr inbounds nuw i8, ptr %.01531, i64 64
  %38 = getelementptr inbounds nuw i8, ptr %.030, i64 64
  %.0 = load ptr, ptr %38, align 8, !tbaa !103
  %.015 = load ptr, ptr %37, align 8, !tbaa !103
  %39 = icmp ne ptr %.015, null
  %40 = icmp ne ptr %.0, null
  %41 = and i1 %40, %39
  br i1 %41, label %.lr.ph, label %._crit_edge, !llvm.loop !125

._crit_edge:                                      ; preds = %_ZN8tinyxml27XMLUtil11StringEqualEPKcS2_i.exit22.thread, %_ZN8tinyxml27XMLUtil11StringEqualEPKcS2_i.exit.thread
  %.lcssa26 = phi i1 [ %27, %_ZN8tinyxml27XMLUtil11StringEqualEPKcS2_i.exit.thread ], [ %39, %_ZN8tinyxml27XMLUtil11StringEqualEPKcS2_i.exit22.thread ]
  %.lcssa = phi i1 [ %28, %_ZN8tinyxml27XMLUtil11StringEqualEPKcS2_i.exit.thread ], [ %40, %_ZN8tinyxml27XMLUtil11StringEqualEPKcS2_i.exit22.thread ]
  %or.cond = or i1 %.lcssa, %.lcssa26
  %not.or.cond = xor i1 %or.cond, true
  br label %.loopexit

.loopexit:                                        ; preds = %_ZN8tinyxml27XMLUtil11StringEqualEPKcS2_i.exit22, %2, %_ZN8tinyxml27XMLUtil11StringEqualEPKcS2_i.exit, %._crit_edge
  %.1 = phi i1 [ %not.or.cond, %._crit_edge ], [ false, %_ZN8tinyxml27XMLUtil11StringEqualEPKcS2_i.exit ], [ false, %2 ], [ false, %_ZN8tinyxml27XMLUtil11StringEqualEPKcS2_i.exit22 ]
  ret i1 %.1
}